target datalayout = "e-m:e-p270:32:32-p271:32:32-p272:64:64-i64:64-f80:128-n8:16:32:64-S128"
target triple = "x86_64-pc-linux-gnu"

@.str = private unnamed_addr constant [3 x i8] c"%d\00", align 1
@.str.1 = private unnamed_addr constant [13 x i8] c"%s%d%d%s%s%d\00", align 1
@.str.2 = private unnamed_addr constant [2 x i8] c"Y\00", align 1
@.str.3 = private unnamed_addr constant [10 x i8] c"%s\0A%d\0A%d\0A\00", align 1

; Function Attrs: noinline nounwind uwtable
define dso_local void @main() #0 {
  %1 = alloca i32, align 4
  %2 = alloca i32, align 4
  %3 = alloca [100 x i32], align 16
  %4 = alloca [100 x i32], align 16
  %5 = alloca [100 x i32], align 16
  %6 = alloca [100 x i32], align 16
  %7 = alloca i32, align 4
  %8 = alloca i32, align 4
  %9 = alloca [100 x [20 x i8]], align 16
  %10 = alloca [100 x [1 x i8]], align 16
  %11 = alloca [100 x [1 x i8]], align 16
  %12 = alloca [100 x i8], align 16
  %13 = bitcast [100 x i32]* %6 to i8*
  call void @llvm.memset.p0i8.i64(i8* align 16 %13, i8 0, i64 400, i1 false)
  store i32 0, i32* %7, align 4
  %14 = call i32 (i8*, ...) @__isoc99_scanf(i8* getelementptr inbounds ([3 x i8], [3 x i8]* @.str, i64 0, i64 0), i32* %1)
  store i32 0, i32* %2, align 4
  br label %15

15:                                               ; preds = %143, %0
  %16 = load i32, i32* %2, align 4
  %17 = load i32, i32* %1, align 4
  %18 = icmp slt i32 %16, %17
  br i1 %18, label %19, label %146

19:                                               ; preds = %15
  %20 = load i32, i32* %2, align 4
  %21 = sext i32 %20 to i64
  %22 = getelementptr inbounds [100 x [20 x i8]], [100 x [20 x i8]]* %9, i64 0, i64 %21
  %23 = getelementptr inbounds [20 x i8], [20 x i8]* %22, i64 0, i64 0
  %24 = load i32, i32* %2, align 4
  %25 = sext i32 %24 to i64
  %26 = getelementptr inbounds [100 x i32], [100 x i32]* %3, i64 0, i64 %25
  %27 = load i32, i32* %2, align 4
  %28 = sext i32 %27 to i64
  %29 = getelementptr inbounds [100 x i32], [100 x i32]* %4, i64 0, i64 %28
  %30 = load i32, i32* %2, align 4
  %31 = sext i32 %30 to i64
  %32 = getelementptr inbounds [100 x [1 x i8]], [100 x [1 x i8]]* %10, i64 0, i64 %31
  %33 = getelementptr inbounds [1 x i8], [1 x i8]* %32, i64 0, i64 0
  %34 = load i32, i32* %2, align 4
  %35 = sext i32 %34 to i64
  %36 = getelementptr inbounds [100 x [1 x i8]], [100 x [1 x i8]]* %11, i64 0, i64 %35
  %37 = getelementptr inbounds [1 x i8], [1 x i8]* %36, i64 0, i64 0
  %38 = load i32, i32* %2, align 4
  %39 = sext i32 %38 to i64
  %40 = getelementptr inbounds [100 x i32], [100 x i32]* %5, i64 0, i64 %39
  %41 = call i32 (i8*, ...) @__isoc99_scanf(i8* getelementptr inbounds ([13 x i8], [13 x i8]* @.str.1, i64 0, i64 0), i8* %23, i32* %26, i32* %29, i8* %33, i8* %37, i32* %40)
  %42 = load i32, i32* %2, align 4
  %43 = sext i32 %42 to i64
  %44 = getelementptr inbounds [100 x i32], [100 x i32]* %3, i64 0, i64 %43
  %45 = load i32, i32* %44, align 4
  %46 = icmp sgt i32 %45, 80
  br i1 %46, label %47, label %62

47:                                               ; preds = %19
  %48 = load i32, i32* %2, align 4
  %49 = sext i32 %48 to i64
  %50 = getelementptr inbounds [100 x i32], [100 x i32]* %5, i64 0, i64 %49
  %51 = load i32, i32* %50, align 4
  %52 = icmp sgt i32 %51, 0
  br i1 %52, label %53, label %62

53:                                               ; preds = %47
  %54 = load i32, i32* %2, align 4
  %55 = sext i32 %54 to i64
  %56 = getelementptr inbounds [100 x i32], [100 x i32]* %6, i64 0, i64 %55
  %57 = load i32, i32* %56, align 4
  %58 = add nsw i32 %57, 8000
  %59 = load i32, i32* %2, align 4
  %60 = sext i32 %59 to i64
  %61 = getelementptr inbounds [100 x i32], [100 x i32]* %6, i64 0, i64 %60
  store i32 %58, i32* %61, align 4
  br label %62

62:                                               ; preds = %53, %47, %19
  %63 = load i32, i32* %2, align 4
  %64 = sext i32 %63 to i64
  %65 = getelementptr inbounds [100 x i32], [100 x i32]* %3, i64 0, i64 %64
  %66 = load i32, i32* %65, align 4
  %67 = icmp sgt i32 %66, 85
  br i1 %67, label %68, label %83

68:                                               ; preds = %62
  %69 = load i32, i32* %2, align 4
  %70 = sext i32 %69 to i64
  %71 = getelementptr inbounds [100 x i32], [100 x i32]* %4, i64 0, i64 %70
  %72 = load i32, i32* %71, align 4
  %73 = icmp sgt i32 %72, 80
  br i1 %73, label %74, label %83

74:                                               ; preds = %68
  %75 = load i32, i32* %2, align 4
  %76 = sext i32 %75 to i64
  %77 = getelementptr inbounds [100 x i32], [100 x i32]* %6, i64 0, i64 %76
  %78 = load i32, i32* %77, align 4
  %79 = add nsw i32 %78, 4000
  %80 = load i32, i32* %2, align 4
  %81 = sext i32 %80 to i64
  %82 = getelementptr inbounds [100 x i32], [100 x i32]* %6, i64 0, i64 %81
  store i32 %79, i32* %82, align 4
  br label %83

83:                                               ; preds = %74, %68, %62
  %84 = load i32, i32* %2, align 4
  %85 = sext i32 %84 to i64
  %86 = getelementptr inbounds [100 x i32], [100 x i32]* %3, i64 0, i64 %85
  %87 = load i32, i32* %86, align 4
  %88 = icmp sgt i32 %87, 90
  br i1 %88, label %89, label %98

89:                                               ; preds = %83
  %90 = load i32, i32* %2, align 4
  %91 = sext i32 %90 to i64
  %92 = getelementptr inbounds [100 x i32], [100 x i32]* %6, i64 0, i64 %91
  %93 = load i32, i32* %92, align 4
  %94 = add nsw i32 %93, 2000
  %95 = load i32, i32* %2, align 4
  %96 = sext i32 %95 to i64
  %97 = getelementptr inbounds [100 x i32], [100 x i32]* %6, i64 0, i64 %96
  store i32 %94, i32* %97, align 4
  br label %98

98:                                               ; preds = %89, %83
  %99 = load i32, i32* %2, align 4
  %100 = sext i32 %99 to i64
  %101 = getelementptr inbounds [100 x i32], [100 x i32]* %3, i64 0, i64 %100
  %102 = load i32, i32* %101, align 4
  %103 = icmp sgt i32 %102, 85
  br i1 %103, label %104, label %120

104:                                              ; preds = %98
  %105 = load i32, i32* %2, align 4
  %106 = sext i32 %105 to i64
  %107 = getelementptr inbounds [100 x [1 x i8]], [100 x [1 x i8]]* %11, i64 0, i64 %106
  %108 = getelementptr inbounds [1 x i8], [1 x i8]* %107, i64 0, i64 0
  %109 = call i32 @strcmp(i8* %108, i8* getelementptr inbounds ([2 x i8], [2 x i8]* @.str.2, i64 0, i64 0)) #5
  %110 = icmp eq i32 %109, 0
  br i1 %110, label %111, label %120

111:                                              ; preds = %104
  %112 = load i32, i32* %2, align 4
  %113 = sext i32 %112 to i64
  %114 = getelementptr inbounds [100 x i32], [100 x i32]* %6, i64 0, i64 %113
  %115 = load i32, i32* %114, align 4
  %116 = add nsw i32 %115, 1000
  %117 = load i32, i32* %2, align 4
  %118 = sext i32 %117 to i64
  %119 = getelementptr inbounds [100 x i32], [100 x i32]* %6, i64 0, i64 %118
  store i32 %116, i32* %119, align 4
  br label %120

120:                                              ; preds = %111, %104, %98
  %121 = load i32, i32* %2, align 4
  %122 = sext i32 %121 to i64
  %123 = getelementptr inbounds [100 x i32], [100 x i32]* %4, i64 0, i64 %122
  %124 = load i32, i32* %123, align 4
  %125 = icmp sgt i32 %124, 80
  br i1 %125, label %126, label %142

126:                                              ; preds = %120
  %127 = load i32, i32* %2, align 4
  %128 = sext i32 %127 to i64
  %129 = getelementptr inbounds [100 x [1 x i8]], [100 x [1 x i8]]* %10, i64 0, i64 %128
  %130 = getelementptr inbounds [1 x i8], [1 x i8]* %129, i64 0, i64 0
  %131 = call i32 @strcmp(i8* %130, i8* getelementptr inbounds ([2 x i8], [2 x i8]* @.str.2, i64 0, i64 0)) #5
  %132 = icmp eq i32 %131, 0
  br i1 %132, label %133, label %142

133:                                              ; preds = %126
  %134 = load i32, i32* %2, align 4
  %135 = sext i32 %134 to i64
  %136 = getelementptr inbounds [100 x i32], [100 x i32]* %6, i64 0, i64 %135
  %137 = load i32, i32* %136, align 4
  %138 = add nsw i32 %137, 850
  %139 = load i32, i32* %2, align 4
  %140 = sext i32 %139 to i64
  %141 = getelementptr inbounds [100 x i32], [100 x i32]* %6, i64 0, i64 %140
  store i32 %138, i32* %141, align 4
  br label %142

142:                                              ; preds = %133, %126, %120
  br label %143

143:                                              ; preds = %142
  %144 = load i32, i32* %2, align 4
  %145 = add nsw i32 %144, 1
  store i32 %145, i32* %2, align 4
  br label %15

146:                                              ; preds = %15
  %147 = load i32, i32* %1, align 4
  %148 = sub nsw i32 %147, 2
  store i32 %148, i32* %2, align 4
  br label %149

149:                                              ; preds = %205, %146
  %150 = load i32, i32* %2, align 4
  %151 = icmp sge i32 %150, 0
  br i1 %151, label %152, label %208

152:                                              ; preds = %149
  %153 = load i32, i32* %2, align 4
  %154 = sext i32 %153 to i64
  %155 = getelementptr inbounds [100 x i32], [100 x i32]* %6, i64 0, i64 %154
  %156 = load i32, i32* %155, align 4
  %157 = load i32, i32* %2, align 4
  %158 = add nsw i32 %157, 1
  %159 = sext i32 %158 to i64
  %160 = getelementptr inbounds [100 x i32], [100 x i32]* %6, i64 0, i64 %159
  %161 = load i32, i32* %160, align 4
  %162 = icmp slt i32 %156, %161
  br i1 %162, label %163, label %204

163:                                              ; preds = %152
  %164 = load i32, i32* %2, align 4
  %165 = sext i32 %164 to i64
  %166 = getelementptr inbounds [100 x i32], [100 x i32]* %6, i64 0, i64 %165
  %167 = load i32, i32* %166, align 4
  store i32 %167, i32* %8, align 4
  %168 = load i32, i32* %2, align 4
  %169 = add nsw i32 %168, 1
  %170 = sext i32 %169 to i64
  %171 = getelementptr inbounds [100 x i32], [100 x i32]* %6, i64 0, i64 %170
  %172 = load i32, i32* %171, align 4
  %173 = load i32, i32* %2, align 4
  %174 = sext i32 %173 to i64
  %175 = getelementptr inbounds [100 x i32], [100 x i32]* %6, i64 0, i64 %174
  store i32 %172, i32* %175, align 4
  %176 = load i32, i32* %8, align 4
  %177 = load i32, i32* %2, align 4
  %178 = add nsw i32 %177, 1
  %179 = sext i32 %178 to i64
  %180 = getelementptr inbounds [100 x i32], [100 x i32]* %6, i64 0, i64 %179
  store i32 %176, i32* %180, align 4
  %181 = getelementptr inbounds [100 x i8], [100 x i8]* %12, i64 0, i64 0
  %182 = load i32, i32* %2, align 4
  %183 = sext i32 %182 to i64
  %184 = getelementptr inbounds [100 x [20 x i8]], [100 x [20 x i8]]* %9, i64 0, i64 %183
  %185 = getelementptr inbounds [20 x i8], [20 x i8]* %184, i64 0, i64 0
  %186 = call i8* @strcpy(i8* %181, i8* %185) #6
  %187 = load i32, i32* %2, align 4
  %188 = sext i32 %187 to i64
  %189 = getelementptr inbounds [100 x [20 x i8]], [100 x [20 x i8]]* %9, i64 0, i64 %188
  %190 = getelementptr inbounds [20 x i8], [20 x i8]* %189, i64 0, i64 0
  %191 = load i32, i32* %2, align 4
  %192 = add nsw i32 %191, 1
  %193 = sext i32 %192 to i64
  %194 = getelementptr inbounds [100 x [20 x i8]], [100 x [20 x i8]]* %9, i64 0, i64 %193
  %195 = getelementptr inbounds [20 x i8], [20 x i8]* %194, i64 0, i64 0
  %196 = call i8* @strcpy(i8* %190, i8* %195) #6
  %197 = load i32, i32* %2, align 4
  %198 = add nsw i32 %197, 1
  %199 = sext i32 %198 to i64
  %200 = getelementptr inbounds [100 x [20 x i8]], [100 x [20 x i8]]* %9, i64 0, i64 %199
  %201 = getelementptr inbounds [20 x i8], [20 x i8]* %200, i64 0, i64 0
  %202 = getelementptr inbounds [100 x i8], [100 x i8]* %12, i64 0, i64 0
  %203 = call i8* @strcpy(i8* %201, i8* %202) #6
  br label %204

204:                                              ; preds = %163, %152
  br label %205

205:                                              ; preds = %204
  %206 = load i32, i32* %2, align 4
  %207 = add nsw i32 %206, -1
  store i32 %207, i32* %2, align 4
  br label %149

208:                                              ; preds = %149
  store i32 0, i32* %2, align 4
  br label %209

209:                                              ; preds = %220, %208
  %210 = load i32, i32* %2, align 4
  %211 = load i32, i32* %1, align 4
  %212 = icmp slt i32 %210, %211
  br i1 %212, label %213, label %223

213:                                              ; preds = %209
  %214 = load i32, i32* %7, align 4
  %215 = load i32, i32* %2, align 4
  %216 = sext i32 %215 to i64
  %217 = getelementptr inbounds [100 x i32], [100 x i32]* %6, i64 0, i64 %216
  %218 = load i32, i32* %217, align 4
  %219 = add nsw i32 %214, %218
  store i32 %219, i32* %7, align 4
  br label %220

220:                                              ; preds = %213
  %221 = load i32, i32* %2, align 4
  %222 = add nsw i32 %221, 1
  store i32 %222, i32* %2, align 4
  br label %209

223:                                              ; preds = %209
  %224 = getelementptr inbounds [100 x [20 x i8]], [100 x [20 x i8]]* %9, i64 0, i64 0
  %225 = getelementptr inbounds [20 x i8], [20 x i8]* %224, i64 0, i64 0
  %226 = getelementptr inbounds [100 x i32], [100 x i32]* %6, i64 0, i64 0
  %227 = load i32, i32* %226, align 16
  %228 = load i32, i32* %7, align 4
  %229 = call i32 (i8*, ...) @printf(i8* getelementptr inbounds ([10 x i8], [10 x i8]* @.str.3, i64 0, i64 0), i8* %225, i32 %227, i32 %228)
  ret void
}